target datalayout = "e-m:e-p270:32:32-p271:32:32-p272:64:64-i64:64-i128:128-f80:128-n8:16:32:64-S128"
target triple = "x86_64-pc-linux-gnu"

%struct.pointf_s = type { double, double }
%struct.GVJ_s = type { ptr, ptr, ptr, ptr, ptr, ptr, i32, ptr, ptr, ptr, ptr, i64, i64, ptr, i32, %struct.gvplugin_active_render_s, %struct.gvplugin_active_device_s, %struct.gvplugin_active_loadimage_t, ptr, %struct.pointf_s, i8, ptr, i32, ptr, i8, ptr, i32, i32, i32, %struct.point, %struct.point, %struct.point, %struct.point, %struct.point, i32, %struct.boxf, %struct.pointf_s, %struct.boxf, %struct.boxf, %struct.pointf_s, %struct.pointf_s, double, i32, %struct.pointf_s, %struct.boxf, %struct.pointf_s, %struct.pointf_s, i32, i32, %struct.box, %struct.box, %struct.pointf_s, %struct.pointf_s, %struct.pointf_s, i8, i8, i8, i8, i8, i8, %struct.pointf_s, %struct.pointf_s, ptr, ptr, ptr, ptr, ptr, ptr, i64, ptr }
%struct.gvplugin_active_render_s = type { ptr, i32, ptr, ptr }
%struct.gvplugin_active_device_s = type { ptr, i32, ptr, ptr }
%struct.gvplugin_active_loadimage_t = type { ptr, i32, ptr }
%struct.point = type { i32, i32 }
%struct.boxf = type { %struct.pointf_s, %struct.pointf_s }
%struct.box = type { %struct.point, %struct.point }
%struct.GVCOMMON_s = type { ptr, ptr, i32, i8, i8, ptr, ptr, ptr, i32, ptr, i32 }
%struct.obj_state_s = type { ptr, i32, %union.anon, i32, %struct.color_s, %struct.color_s, %struct.color_s, i32, double, i32, i32, double, ptr, double, double, double, ptr, ptr, ptr, ptr, ptr, ptr, ptr, ptr, ptr, ptr, ptr, ptr, ptr, ptr, ptr, ptr, ptr, i16, i32, i64, ptr, i64, ptr, ptr, i32, ptr, i32, ptr }
%union.anon = type { ptr }
%struct.color_s = type { %union.anon.0, i32 }
%union.anon.0 = type { [4 x double] }

@.str.2 = private unnamed_addr constant [32 x i8] c"%s Creator: %s version %s (%s)\0A\00", align 1
@troff_comments = internal constant [5 x i8] c".\\\22 \00", align 1
@.str.3 = private unnamed_addr constant [14 x i8] c"%s Title: %s\0A\00", align 1
@.str.4 = private unnamed_addr constant [55 x i8] c"%s save point size and font\0A.nr .S \\n(.s\0A.nr DF \\n(.f\0A\00", align 1

; Function Attrs: nounwind uwtable
define internal void @pic_begin_graph(ptr noundef %0) #0 {
  %2 = alloca ptr, align 8
  %3 = alloca ptr, align 8
  store ptr %0, ptr %2, align 8, !tbaa !3
  call void @llvm.lifetime.start.p0(i64 8, ptr %3) #8
  %4 = load ptr, ptr %2, align 8, !tbaa !3
  %5 = getelementptr inbounds nuw %struct.GVJ_s, ptr %4, i32 0, i32 4
  %6 = load ptr, ptr %5, align 8, !tbaa !8
  store ptr %6, ptr %3, align 8, !tbaa !31
  %7 = load ptr, ptr %2, align 8, !tbaa !3
  %8 = load ptr, ptr %2, align 8, !tbaa !3
  %9 = getelementptr inbounds nuw %struct.GVJ_s, ptr %8, i32 0, i32 3
  %10 = load ptr, ptr %9, align 8, !tbaa !32
  %11 = getelementptr inbounds nuw %struct.GVCOMMON_s, ptr %10, i32 0, i32 0
  %12 = load ptr, ptr %11, align 8, !tbaa !33
  %13 = getelementptr inbounds ptr, ptr %12, i64 0
  %14 = load ptr, ptr %13, align 8, !tbaa !36
  %15 = load ptr, ptr %2, align 8, !tbaa !3
  %16 = getelementptr inbounds nuw %struct.GVJ_s, ptr %15, i32 0, i32 3
  %17 = load ptr, ptr %16, align 8, !tbaa !32
  %18 = getelementptr inbounds nuw %struct.GVCOMMON_s, ptr %17, i32 0, i32 0
  %19 = load ptr, ptr %18, align 8, !tbaa !33
  %20 = getelementptr inbounds ptr, ptr %19, i64 1
  %21 = load ptr, ptr %20, align 8, !tbaa !36
  %22 = load ptr, ptr %2, align 8, !tbaa !3
  %23 = getelementptr inbounds nuw %struct.GVJ_s, ptr %22, i32 0, i32 3
  %24 = load ptr, ptr %23, align 8, !tbaa !32
  %25 = getelementptr inbounds nuw %struct.GVCOMMON_s, ptr %24, i32 0, i32 0
  %26 = load ptr, ptr %25, align 8, !tbaa !33
  %27 = getelementptr inbounds ptr, ptr %26, i64 2
  %28 = load ptr, ptr %27, align 8, !tbaa !36
  call void (ptr, ptr, ...) @gvprintf(ptr noundef %7, ptr noundef @.str.2, ptr noundef @troff_comments, ptr noundef %14, ptr noundef %21, ptr noundef %28)
  %29 = load ptr, ptr %2, align 8, !tbaa !3
  %30 = load ptr, ptr %3, align 8, !tbaa !31
  %31 = getelementptr inbounds nuw %struct.obj_state_s, ptr %30, i32 0, i32 2
  %32 = load ptr, ptr %31, align 8, !tbaa !37
  %33 = call ptr @agnameof(ptr noundef %32)
  call void (ptr, ptr, ...) @gvprintf(ptr noundef %29, ptr noundef @.str.3, ptr noundef @troff_comments, ptr noundef %33)
  %34 = load ptr, ptr %2, align 8, !tbaa !3
  call void (ptr, ptr, ...) @gvprintf(ptr noundef %34, ptr noundef @.str.4, ptr noundef @troff_comments)
  call void @llvm.lifetime.end.p0(i64 8, ptr %3) #8
  ret void
}